; ModuleID = 'bench/linux/original/i915_config.ll'
source_filename = "bench/linux/original/i915_config.ll"
target datalayout = "e-m:e-p270:32:32-p271:32:32-p272:64:64-i64:64-i128:128-f80:128-n8:16:32:64-S128"
target triple = "x86_64-unknown-linux-gnu"

; Function Attrs: fn_ret_thunk_extern mustprogress nofree norecurse nosync nounwind null_pointer_is_valid willreturn memory(none)
define dso_local noundef i64 @i915_fence_context_timeout(ptr nocapture noundef readnone %0, i64 noundef %1) local_unnamed_addr #0 align 16 {
  %3 = icmp eq i64 %1, 0
  %4 = select i1 %3, i64 0, i64 10001
  ret i64 %4
}


!llvm.module.flags = !{!0, !1, !2, !3, !4}

!0 = !{i32 1, !"wchar_size", i32 2}
!1 = !{i32 8, !"cf-protection-branch", i32 1}
!2 = !{i32 4, !"function_return_thunk_extern", i32 1}
!3 = !{i32 4, !"indirect_branch_cs_prefix", i32 1}
!4 = !{i32 4, !"SkipRaxSetup", i32 1}
